; Function Attrs: mustprogress uwtable
define internal noalias noundef nonnull ptr @_ZZN8pybind116detail16type_caster_baseIN12_GLOBAL__N_118SharedFromThisVirtEE21make_move_constructorIS3_vEEDTcmnw_T_piclsr3stdE7declvalIOS6_EEEtlPFPvPKvEEEPKS6_ENUlSA_E_8__invokeESA_(ptr nocapture readnone %0) #1 align 2 {
  %2 = tail call noalias noundef nonnull dereferenceable(32) ptr @_Znwm(i64 noundef 32) #32
  %3 = getelementptr inbounds i8, ptr %2, i64 8
  %4 = getelementptr inbounds i8, ptr %2, i64 16
  tail call void @llvm.memset.p0.i64(ptr noundef nonnull align 8 dereferenceable(16) %4, i8 0, i64 16, i1 false)
  store ptr getelementptr inbounds ({ [5 x ptr], [5 x ptr] }, ptr @_ZTVN12_GLOBAL__N_118SharedFromThisVirtE, i64 0, i32 0, i64 3), ptr %2, align 8
  store ptr getelementptr inbounds ({ [5 x ptr], [5 x ptr] }, ptr @_ZTVN12_GLOBAL__N_118SharedFromThisVirtE, i64 0, i32 1, i64 3), ptr %3, align 8
  ret ptr %2
}